target datalayout = "e-m:e-p270:32:32-p271:32:32-p272:64:64-i64:64-i128:128-f80:128-n8:16:32:64-S128"
target triple = "x86_64-pc-linux-gnu"

@.str.1 = private unnamed_addr constant [13 x i8] c"script_lua.c\00", align 1
@.str.105 = private unnamed_addr constant [52 x i8] c"lua stack limit reach when parsing redis.call reply\00", align 1
@.str.109 = private unnamed_addr constant [4 x i8] c"map\00", align 1

; Function Attrs: nounwind uwtable
define internal void @redisProtocolToLuaType_Map(ptr noundef %0, ptr noundef %1, i64 noundef %2, ptr noundef %3) #0 {
  %5 = alloca ptr, align 8
  %6 = alloca ptr, align 8
  %7 = alloca i64, align 8
  %8 = alloca ptr, align 8
  %9 = alloca ptr, align 8
  %10 = alloca i64, align 8
  store ptr %0, ptr %5, align 8, !tbaa !123
  store ptr %1, ptr %6, align 8, !tbaa !12
  store i64 %2, ptr %7, align 8, !tbaa !23
  store ptr %3, ptr %8, align 8, !tbaa !10
  call void @llvm.lifetime.start.p0(i64 8, ptr %9) #12
  %11 = load ptr, ptr %6, align 8, !tbaa !12
  store ptr %11, ptr %9, align 8, !tbaa !5
  %12 = load ptr, ptr %9, align 8, !tbaa !5
  %13 = icmp ne ptr %12, null
  br i1 %13, label %14, label %23

14:                                               ; preds = %4
  %15 = load ptr, ptr %9, align 8, !tbaa !5
  %16 = call i32 @lua_checkstack(ptr noundef %15, i32 noundef 3)
  %17 = icmp ne i32 %16, 0
  br i1 %17, label %19, label %18

18:                                               ; preds = %14
  call void (ptr, i32, ptr, ...) @_serverPanic(ptr noundef @.str.1, i32 noundef 330, ptr noundef @.str.105)
  call void @abort() #11
  unreachable

19:                                               ; preds = %14
  %20 = load ptr, ptr %9, align 8, !tbaa !5
  call void @lua_createtable(ptr noundef %20, i32 noundef 0, i32 noundef 0)
  %21 = load ptr, ptr %9, align 8, !tbaa !5
  call void @lua_pushstring(ptr noundef %21, ptr noundef @.str.109)
  %22 = load ptr, ptr %9, align 8, !tbaa !5
  call void @lua_createtable(ptr noundef %22, i32 noundef 0, i32 noundef 0)
  br label %23

23:                                               ; preds = %19, %4
  call void @llvm.lifetime.start.p0(i64 8, ptr %10) #12
  store i64 0, ptr %10, align 8, !tbaa !23
  br label %24

24:                                               ; preds = %41, %23
  %25 = load i64, ptr %10, align 8, !tbaa !23
  %26 = load i64, ptr %7, align 8, !tbaa !23
  %27 = icmp ult i64 %25, %26
  br i1 %27, label %29, label %28

28:                                               ; preds = %24
  call void @llvm.lifetime.end.p0(i64 8, ptr %10) #12
  br label %44

29:                                               ; preds = %24
  %30 = load ptr, ptr %5, align 8, !tbaa !123
  %31 = load ptr, ptr %9, align 8, !tbaa !5
  %32 = call i32 @parseReply(ptr noundef %30, ptr noundef %31)
  %33 = load ptr, ptr %5, align 8, !tbaa !123
  %34 = load ptr, ptr %9, align 8, !tbaa !5
  %35 = call i32 @parseReply(ptr noundef %33, ptr noundef %34)
  %36 = load ptr, ptr %9, align 8, !tbaa !5
  %37 = icmp ne ptr %36, null
  br i1 %37, label %38, label %40

38:                                               ; preds = %29
  %39 = load ptr, ptr %9, align 8, !tbaa !5
  call void @lua_settable(ptr noundef %39, i32 noundef -3)
  br label %40

40:                                               ; preds = %38, %29
  br label %41

41:                                               ; preds = %40
  %42 = load i64, ptr %10, align 8, !tbaa !23
  %43 = add i64 %42, 1
  store i64 %43, ptr %10, align 8, !tbaa !23
  br label %24, !llvm.loop !127

44:                                               ; preds = %28
  %45 = load ptr, ptr %9, align 8, !tbaa !5
  %46 = icmp ne ptr %45, null
  br i1 %46, label %47, label %49

47:                                               ; preds = %44
  %48 = load ptr, ptr %9, align 8, !tbaa !5
  call void @lua_settable(ptr noundef %48, i32 noundef -3)
  br label %49

49:                                               ; preds = %47, %44
  call void @llvm.lifetime.end.p0(i64 8, ptr %9) #12
  ret void
}